target datalayout = "e-m:e-p270:32:32-p271:32:32-p272:64:64-i64:64-i128:128-f80:128-n8:16:32:64-S128"
target triple = "x86_64-pc-linux-gnu"

@_ZN11JvmtiExport22_should_post_data_dumpE = external global i8, align 1

; Function Attrs: mustprogress nounwind uwtable
define linkonce_odr hidden noundef zeroext i1 @_ZN11JvmtiExport21should_post_data_dumpEv() #1 comdat align 2 {
  %1 = load i8, ptr @_ZN11JvmtiExport22_should_post_data_dumpE, align 1
  %2 = trunc i8 %1 to i1
  ret i1 %2
}

; Function Attrs: mustprogress nounwind uwtable
define hidden void @_ZN17JVMTIDataDumpDCmd7executeE10DCmdSourceP10JavaThread(ptr noundef nonnull align 8 dereferenceable(17) %0, i32 noundef %1, ptr noundef %2) unnamed_addr #1 align 2 {
  %4 = alloca ptr, align 8
  %5 = alloca i32, align 4
  %6 = alloca ptr, align 8
  store ptr %0, ptr %4, align 8
  store i32 %1, ptr %5, align 4
  store ptr %2, ptr %6, align 8
  %7 = call noundef zeroext i1 @_ZN11JvmtiExport21should_post_data_dumpEv()
  br i1 %7, label %8, label %9

8:                                                ; preds = %3
  call void @_ZN11JvmtiExport14post_data_dumpEv()
  br label %9

9:                                                ; preds = %8, %3
  ret void
}