; Function Attrs: mustprogress nounwind uwtable
define hidden void @_ZN17JVMTIDataDumpDCmd7executeE10DCmdSourceP10JavaThread(ptr nocapture nonnull readnone align 8 %0, i32 %1, ptr nocapture readnone %2) unnamed_addr #0 align 2 {
  %4 = load i8, ptr @_ZN11JvmtiExport22_should_post_data_dumpE, align 1
  %5 = trunc i8 %4 to i1
  br i1 %5, label %6, label %7

6:                                                ; preds = %3
  tail call void @_ZN11JvmtiExport14post_data_dumpEv() #17
  br label %7

7:                                                ; preds = %6, %3
  ret void
}